target datalayout = "e-m:e-p270:32:32-p271:32:32-p272:64:64-i64:64-i128:128-f80:128-n8:16:32:64-S128"
target triple = "x86_64-pc-linux-gnu"

%struct.ImVec2 = type { float, float }
%struct.ImVec4 = type { float, float, float, float }
%struct.ImVector = type { i32, i32, ptr }
%struct.ImVector.0 = type { i32, i32, ptr }
%struct.ImVector.2 = type { i32, i32, ptr }
%struct.ImGuiStorage = type { %struct.ImVector.4 }
%struct.ImVector.4 = type { i32, i32, ptr }
%struct.ImVector.19 = type { i32, i32, ptr }
%struct.ImVector.20 = type { i32, i32, ptr }
%struct.ImRect = type { %struct.ImVec2, %struct.ImVec2 }
%struct.ImVector.30 = type { i32, i32, ptr }
%struct.ImGuiWindow = type <{ ptr, ptr, i32, i32, i32, [4 x i8], ptr, %struct.ImVec2, %struct.ImVec2, %struct.ImVec2, %struct.ImVec2, %struct.ImVec2, %struct.ImVec2, %struct.ImVec2, float, float, float, float, float, float, float, float, float, float, i32, i32, i32, i32, %struct.ImVec2, %struct.ImVec2, %struct.ImVec2, %struct.ImVec2, %struct.ImVec2, %struct.ImVec2, i8, i8, i8, i8, i8, i8, i8, i8, i8, i8, i8, i8, i8, i8, i8, i8, i16, i16, i16, i16, i16, i8, i8, i8, [3 x i8], i32, i8, i8, i8, i8, i32, %struct.ImVec2, %struct.ImVec2, [4 x i8], %struct.ImVector.30, %struct.ImGuiWindowTempData, %struct.ImRect, %struct.ImRect, %struct.ImRect, %struct.ImRect, %struct.ImRect, %struct.ImRect, %struct.ImRect, %struct.ImVec2ih, %struct.ImVec2ih, i32, float, float, [4 x i8], %struct.ImGuiStorage, %struct.ImVector.37, float, i32, ptr, %struct.ImDrawList, ptr, ptr, ptr, ptr, ptr, ptr, ptr, ptr, [2 x i32], [2 x %struct.ImRect], [2 x %struct.ImVec2], i32, i32, i32, i8, [3 x i8] }>
%struct.ImGuiWindowTempData = type { %struct.ImVec2, %struct.ImVec2, %struct.ImVec2, %struct.ImVec2, %struct.ImVec2, %struct.ImVec2, %struct.ImVec2, float, float, i8, i8, %struct.ImVec1, %struct.ImVec1, %struct.ImVec1, %struct.ImVec2, i32, i16, i16, i8, i8, i8, i8, %struct.ImVec2, %struct.ImGuiMenuColumns, i32, i32, %struct.ImVector.2, ptr, ptr, i32, i32, i32, i32, float, float, %struct.ImVector.19, %struct.ImVector.19 }
%struct.ImVec1 = type { float }
%struct.ImGuiMenuColumns = type <{ i32, i32, i16, i16, i16, i16, i16, [4 x i16], [2 x i8] }>
%struct.ImVec2ih = type { i16, i16 }
%struct.ImVector.37 = type { i32, i32, ptr }
%struct.ImDrawList = type { %struct.ImVector.38, %struct.ImVector, %struct.ImVector.39, i32, i32, ptr, ptr, ptr, %struct.ImVector.0, %struct.ImDrawCmdHeader, %struct.ImDrawListSplitter, %struct.ImVector.40, %struct.ImVector.41, float, ptr }
%struct.ImVector.38 = type { i32, i32, ptr }
%struct.ImVector.39 = type { i32, i32, ptr }
%struct.ImDrawCmdHeader = type <{ %struct.ImVec4, ptr, i32, [4 x i8] }>
%struct.ImDrawListSplitter = type { i32, i32, %struct.ImVector.20 }
%struct.ImVector.40 = type { i32, i32, ptr }
%struct.ImVector.41 = type { i32, i32, ptr }

; Function Attrs: inlinehint mustprogress nounwind uwtable
define internal noundef float @_ZL5ImMaxIfET_S0_S0_(float noundef %0, float noundef %1) #7 {
  %3 = alloca float, align 4
  %4 = alloca float, align 4
  store float %0, ptr %3, align 4, !tbaa !18
  store float %1, ptr %4, align 4, !tbaa !18
  %5 = load float, ptr %3, align 4, !tbaa !18
  %6 = load float, ptr %4, align 4, !tbaa !18
  %7 = fcmp oge float %5, %6
  br i1 %7, label %8, label %10

8:                                                ; preds = %2
  %9 = load float, ptr %3, align 4, !tbaa !18
  br label %12

10:                                               ; preds = %2
  %11 = load float, ptr %4, align 4, !tbaa !18
  br label %12

12:                                               ; preds = %10, %8
  %13 = phi float [ %9, %8 ], [ %11, %10 ]
  ret float %13
}

; Function Attrs: mustprogress uwtable
define internal void @_ZL22CalcWindowContentSizesP11ImGuiWindowP6ImVec2S2_(ptr noundef %0, ptr noundef %1, ptr noundef %2) #0 {
  %4 = alloca ptr, align 8
  %5 = alloca ptr, align 8
  %6 = alloca ptr, align 8
  %7 = alloca i8, align 1
  %8 = alloca i32, align 4
  store ptr %0, ptr %4, align 8, !tbaa !412
  store ptr %1, ptr %5, align 8, !tbaa !54
  store ptr %2, ptr %6, align 8, !tbaa !54
  call void @llvm.lifetime.start.p0(i64 1, ptr %7) #16
  store i8 0, ptr %7, align 1, !tbaa !268
  %9 = load ptr, ptr %4, align 8, !tbaa !412
  %10 = getelementptr inbounds nuw %struct.ImGuiWindow, ptr %9, i32 0, i32 39
  %11 = load i8, ptr %10, align 1, !tbaa !955, !range !134, !noundef !135
  %12 = trunc i8 %11 to i1
  br i1 %12, label %13, label %26

13:                                               ; preds = %3
  %14 = load ptr, ptr %4, align 8, !tbaa !412
  %15 = getelementptr inbounds nuw %struct.ImGuiWindow, ptr %14, i32 0, i32 55
  %16 = load i8, ptr %15, align 2, !tbaa !1002
  %17 = sext i8 %16 to i32
  %18 = icmp sle i32 %17, 0
  br i1 %18, label %19, label %26

19:                                               ; preds = %13
  %20 = load ptr, ptr %4, align 8, !tbaa !412
  %21 = getelementptr inbounds nuw %struct.ImGuiWindow, ptr %20, i32 0, i32 56
  %22 = load i8, ptr %21, align 1, !tbaa !1001
  %23 = sext i8 %22 to i32
  %24 = icmp sle i32 %23, 0
  br i1 %24, label %25, label %26

25:                                               ; preds = %19
  store i8 1, ptr %7, align 1, !tbaa !268
  br label %45

26:                                               ; preds = %19, %13, %3
  %27 = load ptr, ptr %4, align 8, !tbaa !412
  %28 = getelementptr inbounds nuw %struct.ImGuiWindow, ptr %27, i32 0, i32 44
  %29 = load i8, ptr %28, align 2, !tbaa !1091, !range !134, !noundef !135
  %30 = trunc i8 %29 to i1
  br i1 %30, label %31, label %44

31:                                               ; preds = %26
  %32 = load ptr, ptr %4, align 8, !tbaa !412
  %33 = getelementptr inbounds nuw %struct.ImGuiWindow, ptr %32, i32 0, i32 61
  %34 = load i8, ptr %33, align 1, !tbaa !1216
  %35 = sext i8 %34 to i32
  %36 = icmp eq i32 %35, 0
  br i1 %36, label %37, label %44

37:                                               ; preds = %31
  %38 = load ptr, ptr %4, align 8, !tbaa !412
  %39 = getelementptr inbounds nuw %struct.ImGuiWindow, ptr %38, i32 0, i32 60
  %40 = load i8, ptr %39, align 4, !tbaa !1219
  %41 = sext i8 %40 to i32
  %42 = icmp sgt i32 %41, 0
  br i1 %42, label %43, label %44

43:                                               ; preds = %37
  store i8 1, ptr %7, align 1, !tbaa !268
  br label %44

44:                                               ; preds = %43, %37, %31, %26
  br label %45

45:                                               ; preds = %44, %25
  %46 = load i8, ptr %7, align 1, !tbaa !268, !range !134, !noundef !135
  %47 = trunc i8 %46 to i1
  br i1 %47, label %48, label %55

48:                                               ; preds = %45
  %49 = load ptr, ptr %4, align 8, !tbaa !412
  %50 = getelementptr inbounds nuw %struct.ImGuiWindow, ptr %49, i32 0, i32 10
  %51 = load ptr, ptr %5, align 8, !tbaa !54
  call void @llvm.memcpy.p0.p0.i64(ptr align 4 %51, ptr align 8 %50, i64 8, i1 false), !tbaa.struct !17
  %52 = load ptr, ptr %4, align 8, !tbaa !412
  %53 = getelementptr inbounds nuw %struct.ImGuiWindow, ptr %52, i32 0, i32 11
  %54 = load ptr, ptr %6, align 8, !tbaa !54
  call void @llvm.memcpy.p0.p0.i64(ptr align 4 %54, ptr align 8 %53, i64 8, i1 false), !tbaa.struct !17
  store i32 1, ptr %8, align 4
  br label %180

55:                                               ; preds = %45
  %56 = load ptr, ptr %4, align 8, !tbaa !412
  %57 = getelementptr inbounds nuw %struct.ImGuiWindow, ptr %56, i32 0, i32 12
  %58 = getelementptr inbounds nuw %struct.ImVec2, ptr %57, i32 0, i32 0
  %59 = load float, ptr %58, align 8, !tbaa !1232
  %60 = fcmp une float %59, 0.000000e+00
  br i1 %60, label %61, label %66

61:                                               ; preds = %55
  %62 = load ptr, ptr %4, align 8, !tbaa !412
  %63 = getelementptr inbounds nuw %struct.ImGuiWindow, ptr %62, i32 0, i32 12
  %64 = getelementptr inbounds nuw %struct.ImVec2, ptr %63, i32 0, i32 0
  %65 = load float, ptr %64, align 8, !tbaa !1232
  br label %80

66:                                               ; preds = %55
  %67 = load ptr, ptr %4, align 8, !tbaa !412
  %68 = getelementptr inbounds nuw %struct.ImGuiWindow, ptr %67, i32 0, i32 69
  %69 = getelementptr inbounds nuw %struct.ImGuiWindowTempData, ptr %68, i32 0, i32 3
  %70 = getelementptr inbounds nuw %struct.ImVec2, ptr %69, i32 0, i32 0
  %71 = load float, ptr %70, align 8, !tbaa !1356
  %72 = load ptr, ptr %4, align 8, !tbaa !412
  %73 = getelementptr inbounds nuw %struct.ImGuiWindow, ptr %72, i32 0, i32 69
  %74 = getelementptr inbounds nuw %struct.ImGuiWindowTempData, ptr %73, i32 0, i32 2
  %75 = getelementptr inbounds nuw %struct.ImVec2, ptr %74, i32 0, i32 0
  %76 = load float, ptr %75, align 8, !tbaa !1276
  %77 = fsub float %71, %76
  %78 = fptosi float %77 to i32
  %79 = sitofp i32 %78 to float
  br label %80

80:                                               ; preds = %66, %61
  %81 = phi float [ %65, %61 ], [ %79, %66 ]
  %82 = load ptr, ptr %5, align 8, !tbaa !54
  %83 = getelementptr inbounds nuw %struct.ImVec2, ptr %82, i32 0, i32 0
  store float %81, ptr %83, align 4, !tbaa !56
  %84 = load ptr, ptr %4, align 8, !tbaa !412
  %85 = getelementptr inbounds nuw %struct.ImGuiWindow, ptr %84, i32 0, i32 12
  %86 = getelementptr inbounds nuw %struct.ImVec2, ptr %85, i32 0, i32 1
  %87 = load float, ptr %86, align 4, !tbaa !1233
  %88 = fcmp une float %87, 0.000000e+00
  br i1 %88, label %89, label %94

89:                                               ; preds = %80
  %90 = load ptr, ptr %4, align 8, !tbaa !412
  %91 = getelementptr inbounds nuw %struct.ImGuiWindow, ptr %90, i32 0, i32 12
  %92 = getelementptr inbounds nuw %struct.ImVec2, ptr %91, i32 0, i32 1
  %93 = load float, ptr %92, align 4, !tbaa !1233
  br label %108

94:                                               ; preds = %80
  %95 = load ptr, ptr %4, align 8, !tbaa !412
  %96 = getelementptr inbounds nuw %struct.ImGuiWindow, ptr %95, i32 0, i32 69
  %97 = getelementptr inbounds nuw %struct.ImGuiWindowTempData, ptr %96, i32 0, i32 3
  %98 = getelementptr inbounds nuw %struct.ImVec2, ptr %97, i32 0, i32 1
  %99 = load float, ptr %98, align 4, !tbaa !458
  %100 = load ptr, ptr %4, align 8, !tbaa !412
  %101 = getelementptr inbounds nuw %struct.ImGuiWindow, ptr %100, i32 0, i32 69
  %102 = getelementptr inbounds nuw %struct.ImGuiWindowTempData, ptr %101, i32 0, i32 2
  %103 = getelementptr inbounds nuw %struct.ImVec2, ptr %102, i32 0, i32 1
  %104 = load float, ptr %103, align 4, !tbaa !1277
  %105 = fsub float %99, %104
  %106 = fptosi float %105 to i32
  %107 = sitofp i32 %106 to float
  br label %108

108:                                              ; preds = %94, %89
  %109 = phi float [ %93, %89 ], [ %107, %94 ]
  %110 = load ptr, ptr %5, align 8, !tbaa !54
  %111 = getelementptr inbounds nuw %struct.ImVec2, ptr %110, i32 0, i32 1
  store float %109, ptr %111, align 4, !tbaa !57
  %112 = load ptr, ptr %4, align 8, !tbaa !412
  %113 = getelementptr inbounds nuw %struct.ImGuiWindow, ptr %112, i32 0, i32 12
  %114 = getelementptr inbounds nuw %struct.ImVec2, ptr %113, i32 0, i32 0
  %115 = load float, ptr %114, align 8, !tbaa !1232
  %116 = fcmp une float %115, 0.000000e+00
  br i1 %116, label %117, label %122

117:                                              ; preds = %108
  %118 = load ptr, ptr %4, align 8, !tbaa !412
  %119 = getelementptr inbounds nuw %struct.ImGuiWindow, ptr %118, i32 0, i32 12
  %120 = getelementptr inbounds nuw %struct.ImVec2, ptr %119, i32 0, i32 0
  %121 = load float, ptr %120, align 8, !tbaa !1232
  br label %142

122:                                              ; preds = %108
  %123 = load ptr, ptr %4, align 8, !tbaa !412
  %124 = getelementptr inbounds nuw %struct.ImGuiWindow, ptr %123, i32 0, i32 69
  %125 = getelementptr inbounds nuw %struct.ImGuiWindowTempData, ptr %124, i32 0, i32 3
  %126 = getelementptr inbounds nuw %struct.ImVec2, ptr %125, i32 0, i32 0
  %127 = load float, ptr %126, align 8, !tbaa !1356
  %128 = load ptr, ptr %4, align 8, !tbaa !412
  %129 = getelementptr inbounds nuw %struct.ImGuiWindow, ptr %128, i32 0, i32 69
  %130 = getelementptr inbounds nuw %struct.ImGuiWindowTempData, ptr %129, i32 0, i32 4
  %131 = getelementptr inbounds nuw %struct.ImVec2, ptr %130, i32 0, i32 0
  %132 = load float, ptr %131, align 8, !tbaa !1357
  %133 = call noundef float @_ZL5ImMaxIfET_S0_S0_(float noundef %127, float noundef %132)
  %134 = load ptr, ptr %4, align 8, !tbaa !412
  %135 = getelementptr inbounds nuw %struct.ImGuiWindow, ptr %134, i32 0, i32 69
  %136 = getelementptr inbounds nuw %struct.ImGuiWindowTempData, ptr %135, i32 0, i32 2
  %137 = getelementptr inbounds nuw %struct.ImVec2, ptr %136, i32 0, i32 0
  %138 = load float, ptr %137, align 8, !tbaa !1276
  %139 = fsub float %133, %138
  %140 = fptosi float %139 to i32
  %141 = sitofp i32 %140 to float
  br label %142

142:                                              ; preds = %122, %117
  %143 = phi float [ %121, %117 ], [ %141, %122 ]
  %144 = load ptr, ptr %6, align 8, !tbaa !54
  %145 = getelementptr inbounds nuw %struct.ImVec2, ptr %144, i32 0, i32 0
  store float %143, ptr %145, align 4, !tbaa !56
  %146 = load ptr, ptr %4, align 8, !tbaa !412
  %147 = getelementptr inbounds nuw %struct.ImGuiWindow, ptr %146, i32 0, i32 12
  %148 = getelementptr inbounds nuw %struct.ImVec2, ptr %147, i32 0, i32 1
  %149 = load float, ptr %148, align 4, !tbaa !1233
  %150 = fcmp une float %149, 0.000000e+00
  br i1 %150, label %151, label %156

151:                                              ; preds = %142
  %152 = load ptr, ptr %4, align 8, !tbaa !412
  %153 = getelementptr inbounds nuw %struct.ImGuiWindow, ptr %152, i32 0, i32 12
  %154 = getelementptr inbounds nuw %struct.ImVec2, ptr %153, i32 0, i32 1
  %155 = load float, ptr %154, align 4, !tbaa !1233
  br label %176

156:                                              ; preds = %142
  %157 = load ptr, ptr %4, align 8, !tbaa !412
  %158 = getelementptr inbounds nuw %struct.ImGuiWindow, ptr %157, i32 0, i32 69
  %159 = getelementptr inbounds nuw %struct.ImGuiWindowTempData, ptr %158, i32 0, i32 3
  %160 = getelementptr inbounds nuw %struct.ImVec2, ptr %159, i32 0, i32 1
  %161 = load float, ptr %160, align 4, !tbaa !458
  %162 = load ptr, ptr %4, align 8, !tbaa !412
  %163 = getelementptr inbounds nuw %struct.ImGuiWindow, ptr %162, i32 0, i32 69
  %164 = getelementptr inbounds nuw %struct.ImGuiWindowTempData, ptr %163, i32 0, i32 4
  %165 = getelementptr inbounds nuw %struct.ImVec2, ptr %164, i32 0, i32 1
  %166 = load float, ptr %165, align 4, !tbaa !1358
  %167 = call noundef float @_ZL5ImMaxIfET_S0_S0_(float noundef %161, float noundef %166)
  %168 = load ptr, ptr %4, align 8, !tbaa !412
  %169 = getelementptr inbounds nuw %struct.ImGuiWindow, ptr %168, i32 0, i32 69
  %170 = getelementptr inbounds nuw %struct.ImGuiWindowTempData, ptr %169, i32 0, i32 2
  %171 = getelementptr inbounds nuw %struct.ImVec2, ptr %170, i32 0, i32 1
  %172 = load float, ptr %171, align 4, !tbaa !1277
  %173 = fsub float %167, %172
  %174 = fptosi float %173 to i32
  %175 = sitofp i32 %174 to float
  br label %176

176:                                              ; preds = %156, %151
  %177 = phi float [ %155, %151 ], [ %175, %156 ]
  %178 = load ptr, ptr %6, align 8, !tbaa !54
  %179 = getelementptr inbounds nuw %struct.ImVec2, ptr %178, i32 0, i32 1
  store float %177, ptr %179, align 4, !tbaa !57
  store i32 0, ptr %8, align 4
  br label %180

180:                                              ; preds = %176, %48
  call void @llvm.lifetime.end.p0(i64 1, ptr %7) #16
  %181 = load i32, ptr %8, align 4
  switch i32 %181, label %183 [
    i32 0, label %182
    i32 1, label %182
  ]

182:                                              ; preds = %180, %180
  ret void

183:                                              ; preds = %180
  unreachable
}

; Function Attrs: mustprogress nounwind uwtable
define linkonce_odr dso_local void @_ZN6ImVec2C2Ev(ptr noundef nonnull align 4 dereferenceable(8) %0) unnamed_addr #1 comdat align 2 {
  %2 = alloca ptr, align 8
  store ptr %0, ptr %2, align 8, !tbaa !54
  %3 = load ptr, ptr %2, align 8
  %4 = getelementptr inbounds nuw %struct.ImVec2, ptr %3, i32 0, i32 0
  store float 0.000000e+00, ptr %4, align 4, !tbaa !56
  %5 = getelementptr inbounds nuw %struct.ImVec2, ptr %3, i32 0, i32 1
  store float 0.000000e+00, ptr %5, align 4, !tbaa !57
  ret void
}

; Function Attrs: mustprogress uwtable
define dso_local <2 x float> @_ZN5ImGui25CalcWindowNextAutoFitSizeEP11ImGuiWindow(ptr noundef %0) #5 {
  %2 = alloca %struct.ImVec2, align 4
  %3 = alloca ptr, align 8
  %4 = alloca %struct.ImVec2, align 4
  %5 = alloca %struct.ImVec2, align 4
  %6 = alloca %struct.ImVec2, align 4
  store ptr %0, ptr %3, align 8, !tbaa !412
  call void @llvm.lifetime.start.p0(i64 8, ptr %4) #16
  call void @_ZN6ImVec2C2Ev(ptr noundef nonnull align 4 dereferenceable(8) %4)
  call void @llvm.lifetime.start.p0(i64 8, ptr %5) #16
  call void @_ZN6ImVec2C2Ev(ptr noundef nonnull align 4 dereferenceable(8) %5)
  %7 = load ptr, ptr %3, align 8, !tbaa !412
  call void @_ZL22CalcWindowContentSizesP11ImGuiWindowP6ImVec2S2_(ptr noundef %7, ptr noundef %4, ptr noundef %5)
  call void @llvm.lifetime.start.p0(i64 8, ptr %6) #16
  %8 = load ptr, ptr %3, align 8, !tbaa !412
  %9 = call <2 x float> @_ZL21CalcWindowAutoFitSizeP11ImGuiWindowRK6ImVec2(ptr noundef %8, ptr noundef nonnull align 4 dereferenceable(8) %5)
  store <2 x float> %9, ptr %6, align 4
  %10 = load ptr, ptr %3, align 8, !tbaa !412
  %11 = call <2 x float> @_ZL29CalcWindowSizeAfterConstraintP11ImGuiWindowRK6ImVec2(ptr noundef %10, ptr noundef nonnull align 4 dereferenceable(8) %6)
  store <2 x float> %11, ptr %2, align 4
  call void @llvm.lifetime.end.p0(i64 8, ptr %6) #16
  call void @llvm.lifetime.end.p0(i64 8, ptr %5) #16
  call void @llvm.lifetime.end.p0(i64 8, ptr %4) #16
  %12 = load <2 x float>, ptr %2, align 4
  ret <2 x float> %12
}