; Function Attrs: mustprogress uwtable
define dso_local <2 x float> @_ZN5ImGui25CalcWindowNextAutoFitSizeEP11ImGuiWindow(ptr noundef readonly captures(none) %0) local_unnamed_addr #12 {
  %2 = alloca %struct.ImVec2, align 8
  call void @llvm.lifetime.start.p0(i64 8, ptr nonnull %2) #44
  %3 = getelementptr inbounds nuw i8, ptr %2, i64 4
  %4 = getelementptr inbounds nuw i8, ptr %0, i64 205
  %5 = load i8, ptr %4, align 1, !tbaa !680, !range !92, !noundef !93
  %6 = trunc nuw i8 %5 to i1
  br i1 %6, label %7, label %15

7:                                                ; preds = %1
  %8 = getelementptr inbounds nuw i8, ptr %0, i64 226
  %9 = load i8, ptr %8, align 2, !tbaa !725
  %10 = icmp slt i8 %9, 1
  br i1 %10, label %11, label %15

11:                                               ; preds = %7
  %12 = getelementptr inbounds nuw i8, ptr %0, i64 227
  %13 = load i8, ptr %12, align 1, !tbaa !724
  %14 = icmp slt i8 %13, 1
  br i1 %14, label %.critedge37.i, label %15

15:                                               ; preds = %11, %7, %1
  %16 = getelementptr inbounds nuw i8, ptr %0, i64 210
  %17 = load i8, ptr %16, align 2, !tbaa !845, !range !92, !noundef !93
  %18 = trunc nuw i8 %17 to i1
  br i1 %18, label %19, label %.critedge.i

19:                                               ; preds = %15
  %20 = getelementptr inbounds nuw i8, ptr %0, i64 237
  %21 = load i8, ptr %20, align 1, !tbaa !1066
  %22 = icmp eq i8 %21, 0
  br i1 %22, label %23, label %.critedge.i

23:                                               ; preds = %19
  %24 = getelementptr inbounds nuw i8, ptr %0, i64 236
  %25 = load i8, ptr %24, align 4, !tbaa !1070
  %26 = icmp sgt i8 %25, 0
  br i1 %26, label %.critedge37.i, label %.critedge.i

.critedge37.i:                                    ; preds = %23, %11
  %27 = getelementptr inbounds nuw i8, ptr %0, i64 72
  %28 = load i64, ptr %27, align 8
  store i64 %28, ptr %2, align 8
  br label %_ZL22CalcWindowContentSizesP11ImGuiWindowP6ImVec2S2_.exit

.critedge.i:                                      ; preds = %23, %19, %15
  %29 = getelementptr inbounds nuw i8, ptr %0, i64 80
  %30 = load float, ptr %29, align 8, !tbaa !1083
  %31 = fcmp une float %30, 0.000000e+00
  %32 = getelementptr inbounds nuw i8, ptr %0, i64 84
  %33 = load float, ptr %32, align 4, !tbaa !1084
  %34 = fcmp une float %33, 0.000000e+00
  br i1 %31, label %47, label %35

35:                                               ; preds = %.critedge.i
  %36 = getelementptr inbounds nuw i8, ptr %0, i64 304
  %37 = load float, ptr %36, align 8, !tbaa !1207
  %38 = getelementptr inbounds nuw i8, ptr %0, i64 312
  %39 = load float, ptr %38, align 8, !tbaa !1219
  %40 = fcmp oge float %37, %39
  %41 = select i1 %40, float %37, float %39
  %42 = getelementptr inbounds nuw i8, ptr %0, i64 296
  %43 = load float, ptr %42, align 8, !tbaa !1220
  %44 = fsub float %41, %43
  %45 = fptosi float %44 to i32
  %46 = sitofp i32 %45 to float
  br label %47

47:                                               ; preds = %35, %.critedge.i
  %48 = phi float [ %46, %35 ], [ %30, %.critedge.i ]
  store float %48, ptr %2, align 8, !tbaa !49
  br i1 %34, label %61, label %49

49:                                               ; preds = %47
  %50 = getelementptr inbounds nuw i8, ptr %0, i64 308
  %51 = load float, ptr %50, align 4, !tbaa !335
  %52 = getelementptr inbounds nuw i8, ptr %0, i64 316
  %53 = load float, ptr %52, align 4, !tbaa !1221
  %54 = fcmp oge float %51, %53
  %55 = select i1 %54, float %51, float %53
  %56 = getelementptr inbounds nuw i8, ptr %0, i64 300
  %57 = load float, ptr %56, align 4, !tbaa !1222
  %58 = fsub float %55, %57
  %59 = fptosi float %58 to i32
  %60 = sitofp i32 %59 to float
  br label %61

61:                                               ; preds = %49, %47
  %62 = phi float [ %60, %49 ], [ %33, %47 ]
  store float %62, ptr %3, align 4, !tbaa !50
  br label %_ZL22CalcWindowContentSizesP11ImGuiWindowP6ImVec2S2_.exit

_ZL22CalcWindowContentSizesP11ImGuiWindowP6ImVec2S2_.exit: ; preds = %.critedge37.i, %61
  %63 = call fastcc <2 x float> @_ZL21CalcWindowAutoFitSizeP11ImGuiWindowRK6ImVec2(ptr noundef nonnull %0, ptr noundef nonnull align 4 dereferenceable(8) %2)
  %64 = bitcast <2 x float> %63 to i64
  %65 = tail call fastcc <2 x float> @_ZL29CalcWindowSizeAfterConstraintP11ImGuiWindowRK6ImVec2(ptr noundef nonnull %0, i64 %64)
  call void @llvm.lifetime.end.p0(i64 8, ptr nonnull %2) #44
  ret <2 x float> %65
}